target datalayout = "e-m:e-p270:32:32-p271:32:32-p272:64:64-i64:64-i128:128-f80:128-n8:16:32:64-S128"
target triple = "x86_64-unknown-linux-gnu"

%struct.FLAC__BitWriter = type { ptr, i64, i32, i32, i32 }

; Function Attrs: nounwind sspstrong uwtable
define hidden i32 @FLAC__bitwriter_zero_pad_to_byte_boundary(ptr noundef %bw) #0 {
entry:
  %retval = alloca i32, align 4
  %bw.addr = alloca ptr, align 8
  store ptr %bw, ptr %bw.addr, align 8
  %0 = load ptr, ptr %bw.addr, align 8
  %bits = getelementptr inbounds %struct.FLAC__BitWriter, ptr %0, i32 0, i32 4
  %1 = load i32, ptr %bits, align 8
  %and = and i32 %1, 7
  %tobool = icmp ne i32 %and, 0
  br i1 %tobool, label %if.then, label %if.else

if.then:                                          ; preds = %entry
  %2 = load ptr, ptr %bw.addr, align 8
  %3 = load ptr, ptr %bw.addr, align 8
  %bits1 = getelementptr inbounds %struct.FLAC__BitWriter, ptr %3, i32 0, i32 4
  %4 = load i32, ptr %bits1, align 8
  %and2 = and i32 %4, 7
  %sub = sub i32 8, %and2
  %call = call i32 @FLAC__bitwriter_write_zeroes(ptr noundef %2, i32 noundef %sub)
  store i32 %call, ptr %retval, align 4
  br label %return

if.else:                                          ; preds = %entry
  store i32 1, ptr %retval, align 4
  br label %return

return:                                           ; preds = %if.else, %if.then
  %5 = load i32, ptr %retval, align 4
  ret i32 %5
}