; Function Attrs: nounwind sspstrong uwtable
define hidden range(i32 0, 2) i32 @FLAC__bitwriter_zero_pad_to_byte_boundary(ptr noundef captures(none) %bw) local_unnamed_addr #7 {
entry:
  %bits = getelementptr inbounds nuw i8, ptr %bw, i64 24
  %0 = load i32, ptr %bits, align 8
  %and = and i32 %0, 7
  %tobool.not = icmp eq i32 %and, 0
  br i1 %tobool.not, label %return, label %if.then

if.then:                                          ; preds = %entry
  %sub = sub nuw nsw i32 8, %and
  %call = tail call i32 @FLAC__bitwriter_write_zeroes(ptr noundef nonnull %bw, i32 noundef %sub)
  br label %return

return:                                           ; preds = %entry, %if.then
  %retval.0 = phi i32 [ %call, %if.then ], [ 1, %entry ]
  ret i32 %retval.0
}